; Function Attrs: mustprogress uwtable
define hidden void @_ZN7datalog14print_renamingERK10ref_vectorI4expr11ast_managerERSo(ptr nocapture noundef nonnull readonly align 8 dereferenceable(16) %cont, ptr noundef nonnull align 8 dereferenceable(8) %out) local_unnamed_addr #3 {
entry:
  %m_nodes.i = getelementptr inbounds i8, ptr %cont, i64 8
  %0 = load ptr, ptr %m_nodes.i, align 8
  %cmp.i.i = icmp eq ptr %0, null
  br i1 %cmp.i.i, label %_ZNK15ref_vector_coreI4expr19ref_manager_wrapperIS0_11ast_managerEE4sizeEv.exit.thread, label %_ZNK15ref_vector_coreI4expr19ref_manager_wrapperIS0_11ast_managerEE4sizeEv.exit

_ZNK15ref_vector_coreI4expr19ref_manager_wrapperIS0_11ast_managerEE4sizeEv.exit.thread: ; preds = %entry
  %call124 = tail call noundef nonnull align 8 dereferenceable(8) ptr @_ZStlsISt11char_traitsIcEERSt13basic_ostreamIcT_ES5_PKc(ptr noundef nonnull align 8 dereferenceable(8) %out, ptr noundef nonnull @.str.9)
  br label %for.end

_ZNK15ref_vector_coreI4expr19ref_manager_wrapperIS0_11ast_managerEE4sizeEv.exit: ; preds = %entry
  %arrayidx.i.i = getelementptr inbounds i8, ptr %0, i64 -4
  %1 = load i32, ptr %arrayidx.i.i, align 4
  %2 = add i32 %1, -1
  %call1 = tail call noundef nonnull align 8 dereferenceable(8) ptr @_ZStlsISt11char_traitsIcEERSt13basic_ostreamIcT_ES5_PKc(ptr noundef nonnull align 8 dereferenceable(8) %out, ptr noundef nonnull @.str.9)
  %cmp19 = icmp sgt i32 %2, -1
  br i1 %cmp19, label %for.body.preheader, label %for.end

for.body.preheader:                               ; preds = %_ZNK15ref_vector_coreI4expr19ref_manager_wrapperIS0_11ast_managerEE4sizeEv.exit
  %3 = zext nneg i32 %2 to i64
  br label %for.body

for.body:                                         ; preds = %for.body.preheader, %for.inc
  %indvars.iv = phi i64 [ %3, %for.body.preheader ], [ %indvars.iv.next, %for.inc ]
  %4 = trunc i64 %indvars.iv to i32
  %5 = sub i32 %2, %4
  %call4 = tail call noundef nonnull align 8 dereferenceable(8) ptr @_ZNSolsEj(ptr noundef nonnull align 8 dereferenceable(8) %out, i32 noundef %5)
  %call5 = tail call noundef nonnull align 8 dereferenceable(8) ptr @_ZStlsISt11char_traitsIcEERSt13basic_ostreamIcT_ES5_PKc(ptr noundef nonnull align 8 dereferenceable(8) %call4, ptr noundef nonnull @.str.10)
  %6 = load ptr, ptr %m_nodes.i, align 8
  %arrayidx.i.i15 = getelementptr inbounds ptr, ptr %6, i64 %indvars.iv
  %7 = load ptr, ptr %arrayidx.i.i15, align 8
  %cmp7 = icmp eq ptr %7, null
  br i1 %cmp7, label %if.then, label %if.else

if.then:                                          ; preds = %for.body
  %call8 = tail call noundef nonnull align 8 dereferenceable(8) ptr @_ZStlsISt11char_traitsIcEERSt13basic_ostreamIcT_ES5_PKc(ptr noundef nonnull align 8 dereferenceable(8) %out, ptr noundef nonnull @.str.11)
  br label %if.end

if.else:                                          ; preds = %for.body
  %m_idx.i = getelementptr inbounds i8, ptr %7, i64 16
  %8 = load i32, ptr %m_idx.i, align 8
  %call12 = tail call noundef nonnull align 8 dereferenceable(8) ptr @_ZNSolsEj(ptr noundef nonnull align 8 dereferenceable(8) %out, i32 noundef %8)
  br label %if.end

if.end:                                           ; preds = %if.else, %if.then
  %cmp13.not = icmp eq i64 %indvars.iv, 0
  br i1 %cmp13.not, label %for.end, label %for.inc

for.inc:                                          ; preds = %if.end
  %call15 = tail call noundef nonnull align 8 dereferenceable(8) ptr @_ZStlsISt11char_traitsIcEERSt13basic_ostreamIcT_ES5_PKc(ptr noundef nonnull align 8 dereferenceable(8) %out, ptr noundef nonnull @.str.12)
  %indvars.iv.next = add nsw i64 %indvars.iv, -1
  %cmp = icmp sgt i64 %indvars.iv, 0
  br i1 %cmp, label %for.body, label %for.end, !llvm.loop !33

for.end:                                          ; preds = %if.end, %for.inc, %_ZNK15ref_vector_coreI4expr19ref_manager_wrapperIS0_11ast_managerEE4sizeEv.exit.thread, %_ZNK15ref_vector_coreI4expr19ref_manager_wrapperIS0_11ast_managerEE4sizeEv.exit
  %call17 = tail call noundef nonnull align 8 dereferenceable(8) ptr @_ZStlsISt11char_traitsIcEERSt13basic_ostreamIcT_ES5_PKc(ptr noundef nonnull align 8 dereferenceable(8) %out, ptr noundef nonnull @.str.8)
  ret void
}